target datalayout = "e-m:e-p270:32:32-p271:32:32-p272:64:64-i64:64-i128:128-f80:128-n8:16:32:64-S128"
target triple = "x86_64-unknown-linux-gnu"

%"class.absl::Cleanup" = type { %"class.absl::cleanup_internal::Storage" }
%"class.absl::cleanup_internal::Storage" = type { i8, [1 x i8] }
%class.anon.865 = type { i8 }

; Function Attrs: mustprogress nounwind uwtable
define internal noundef ptr @"_ZN4absl16cleanup_internal7StorageIZNS_13cord_internal12_GLOBAL__N_151CordRepBtreeTest_CheckAssertValidShallowVsDeep_Test8TestBodyEvE3$_0E17GetCallbackBufferEv"(ptr noundef nonnull align 1 dereferenceable(2) %this) #5 align 2 {
entry:
  %this.addr = alloca ptr, align 8
  store ptr %this, ptr %this.addr, align 8
  %this1 = load ptr, ptr %this.addr, align 8
  %callback_buffer_ = getelementptr inbounds %"class.absl::cleanup_internal::Storage", ptr %this1, i32 0, i32 1
  %arraydecay = getelementptr inbounds [1 x i8], ptr %callback_buffer_, i64 0, i64 0
  ret ptr %arraydecay
}

; Function Attrs: mustprogress uwtable
define internal void @"_ZZN4absl13cord_internal12_GLOBAL__N_151CordRepBtreeTest_CheckAssertValidShallowVsDeep_Test8TestBodyEvENK3$_0clEv"(ptr noundef nonnull align 1 dereferenceable(1) %this) #4 align 2 {
entry:
  %this.addr = alloca ptr, align 8
  store ptr %this, ptr %this.addr, align 8
  %this1 = load ptr, ptr %this.addr, align 8
  %0 = getelementptr inbounds %class.anon.865, ptr %this1, i32 0, i32 0
  %1 = load i8, ptr %0, align 1
  %tobool = trunc i8 %1 to i1
  call void @_ZN4absl13cord_internal32SetCordBtreeExhaustiveValidationEb(i1 noundef zeroext %tobool)
  ret void
}

; Function Attrs: mustprogress nounwind uwtable
define internal noundef nonnull align 1 dereferenceable(1) ptr @"_ZN4absl16cleanup_internal7StorageIZNS_13cord_internal12_GLOBAL__N_151CordRepBtreeTest_CheckAssertValidShallowVsDeep_Test8TestBodyEvE3$_0E11GetCallbackEv"(ptr noundef nonnull align 1 dereferenceable(2) %this) #5 align 2 {
entry:
  %this.addr = alloca ptr, align 8
  store ptr %this, ptr %this.addr, align 8
  %this1 = load ptr, ptr %this.addr, align 8
  %call = call noundef ptr @"_ZN4absl16cleanup_internal7StorageIZNS_13cord_internal12_GLOBAL__N_151CordRepBtreeTest_CheckAssertValidShallowVsDeep_Test8TestBodyEvE3$_0E17GetCallbackBufferEv"(ptr noundef nonnull align 1 dereferenceable(2) %this1)
  ret ptr %call
}

; Function Attrs: mustprogress nounwind uwtable
define internal void @"_ZN4absl16cleanup_internal7StorageIZNS_13cord_internal12_GLOBAL__N_151CordRepBtreeTest_CheckAssertValidShallowVsDeep_Test8TestBodyEvE3$_0E15DestroyCallbackEv"(ptr noundef nonnull align 1 dereferenceable(2) %this) #5 align 2 {
entry:
  %this.addr = alloca ptr, align 8
  store ptr %this, ptr %this.addr, align 8
  %this1 = load ptr, ptr %this.addr, align 8
  %is_callback_engaged_ = getelementptr inbounds %"class.absl::cleanup_internal::Storage", ptr %this1, i32 0, i32 0
  store i8 0, ptr %is_callback_engaged_, align 1
  %call = call noundef nonnull align 1 dereferenceable(1) ptr @"_ZN4absl16cleanup_internal7StorageIZNS_13cord_internal12_GLOBAL__N_151CordRepBtreeTest_CheckAssertValidShallowVsDeep_Test8TestBodyEvE3$_0E11GetCallbackEv"(ptr noundef nonnull align 1 dereferenceable(2) %this1)
  ret void
}

; Function Attrs: mustprogress uwtable
define internal void @"_ZN4absl16cleanup_internal7StorageIZNS_13cord_internal12_GLOBAL__N_151CordRepBtreeTest_CheckAssertValidShallowVsDeep_Test8TestBodyEvE3$_0E14InvokeCallbackEv"(ptr noundef nonnull align 1 dereferenceable(2) %this) #4 align 2 {
entry:
  %this.addr = alloca ptr, align 8
  store ptr %this, ptr %this.addr, align 8
  %this1 = load ptr, ptr %this.addr, align 8
  %call = call noundef nonnull align 1 dereferenceable(1) ptr @"_ZN4absl16cleanup_internal7StorageIZNS_13cord_internal12_GLOBAL__N_151CordRepBtreeTest_CheckAssertValidShallowVsDeep_Test8TestBodyEvE3$_0E11GetCallbackEv"(ptr noundef nonnull align 1 dereferenceable(2) %this1)
  call void @"_ZZN4absl13cord_internal12_GLOBAL__N_151CordRepBtreeTest_CheckAssertValidShallowVsDeep_Test8TestBodyEvENK3$_0clEv"(ptr noundef nonnull align 1 dereferenceable(1) %call)
  ret void
}

; Function Attrs: mustprogress nounwind uwtable
define internal noundef zeroext i1 @"_ZNK4absl16cleanup_internal7StorageIZNS_13cord_internal12_GLOBAL__N_151CordRepBtreeTest_CheckAssertValidShallowVsDeep_Test8TestBodyEvE3$_0E17IsCallbackEngagedEv"(ptr noundef nonnull align 1 dereferenceable(2) %this) #5 align 2 {
entry:
  %this.addr = alloca ptr, align 8
  store ptr %this, ptr %this.addr, align 8
  %this1 = load ptr, ptr %this.addr, align 8
  %is_callback_engaged_ = getelementptr inbounds %"class.absl::cleanup_internal::Storage", ptr %this1, i32 0, i32 0
  %0 = load i8, ptr %is_callback_engaged_, align 1
  %tobool = trunc i8 %0 to i1
  ret i1 %tobool
}

; Function Attrs: mustprogress nounwind uwtable
define internal void @"_ZN4absl7CleanupINS_16cleanup_internal3TagEZNS_13cord_internal12_GLOBAL__N_151CordRepBtreeTest_CheckAssertValidShallowVsDeep_Test8TestBodyEvE3$_0ED2Ev"(ptr noundef nonnull align 1 dereferenceable(2) %this) unnamed_addr #5 align 2 personality ptr @__gxx_personality_v0 {
entry:
  %this.addr = alloca ptr, align 8
  store ptr %this, ptr %this.addr, align 8
  %this1 = load ptr, ptr %this.addr, align 8
  %storage_ = getelementptr inbounds %"class.absl::Cleanup", ptr %this1, i32 0, i32 0
  %call = invoke noundef zeroext i1 @"_ZNK4absl16cleanup_internal7StorageIZNS_13cord_internal12_GLOBAL__N_151CordRepBtreeTest_CheckAssertValidShallowVsDeep_Test8TestBodyEvE3$_0E17IsCallbackEngagedEv"(ptr noundef nonnull align 1 dereferenceable(2) %storage_)
          to label %invoke.cont unwind label %terminate.lpad

invoke.cont:                                      ; preds = %entry
  br i1 %call, label %if.then, label %if.end

if.then:                                          ; preds = %invoke.cont
  %storage_2 = getelementptr inbounds %"class.absl::Cleanup", ptr %this1, i32 0, i32 0
  invoke void @"_ZN4absl16cleanup_internal7StorageIZNS_13cord_internal12_GLOBAL__N_151CordRepBtreeTest_CheckAssertValidShallowVsDeep_Test8TestBodyEvE3$_0E14InvokeCallbackEv"(ptr noundef nonnull align 1 dereferenceable(2) %storage_2)
          to label %invoke.cont3 unwind label %terminate.lpad

invoke.cont3:                                     ; preds = %if.then
  %storage_4 = getelementptr inbounds %"class.absl::Cleanup", ptr %this1, i32 0, i32 0
  invoke void @"_ZN4absl16cleanup_internal7StorageIZNS_13cord_internal12_GLOBAL__N_151CordRepBtreeTest_CheckAssertValidShallowVsDeep_Test8TestBodyEvE3$_0E15DestroyCallbackEv"(ptr noundef nonnull align 1 dereferenceable(2) %storage_4)
          to label %invoke.cont5 unwind label %terminate.lpad

invoke.cont5:                                     ; preds = %invoke.cont3
  br label %if.end

if.end:                                           ; preds = %invoke.cont5, %invoke.cont
  ret void

terminate.lpad:                                   ; preds = %invoke.cont3, %if.then, %entry
  %0 = landingpad { ptr, i32 }
          catch ptr null
  %1 = extractvalue { ptr, i32 } %0, 0
  call void @__clang_call_terminate(ptr %1) #23
  unreachable
}