; Function Attrs: mustprogress nounwind uwtable
define internal fastcc void @"_ZN4absl7CleanupINS_16cleanup_internal3TagEZNS_13cord_internal12_GLOBAL__N_151CordRepBtreeTest_CheckAssertValidShallowVsDeep_Test8TestBodyEvE3$_0ED2Ev"(ptr nocapture noundef nonnull align 1 dereferenceable(2) %this) unnamed_addr #4 align 2 personality ptr @__gxx_personality_v0 {
entry:
  %this.val = load i8, ptr %this, align 1
  %0 = and i8 %this.val, 1
  %tobool.i.not = icmp eq i8 %0, 0
  br i1 %tobool.i.not, label %if.end, label %if.then

if.then:                                          ; preds = %entry
  %1 = getelementptr inbounds i8, ptr %this, i64 1
  %this.val1 = load i8, ptr %1, align 1
  %2 = and i8 %this.val1, 1
  %tobool.i.i = icmp ne i8 %2, 0
  invoke void @_ZN4absl13cord_internal32SetCordBtreeExhaustiveValidationEb(i1 noundef zeroext %tobool.i.i)
          to label %invoke.cont3 unwind label %terminate.lpad

invoke.cont3:                                     ; preds = %if.then
  store i8 0, ptr %this, align 1
  br label %if.end

if.end:                                           ; preds = %invoke.cont3, %entry
  ret void

terminate.lpad:                                   ; preds = %if.then
  %3 = landingpad { ptr, i32 }
          catch ptr null
  %4 = extractvalue { ptr, i32 } %3, 0
  tail call void @__clang_call_terminate(ptr %4) #32
  unreachable
}